(dp0
S'seven'
p1
(lp2
I5
aI2
asS'nine'
p3
(lp4
I5
aI2
asS'six'
p5
(lp6
I5
aI2
asS'three'
p7
(lp8
I5
aI2
asS'two'
p9
(lp10
I5
aI2
asS'four'
p11
(lp12
I5
aI2
asS'eight'
p13
(lp14
I5
aI2
asS'five'
p15
(lp16
I5
aI2
asS'one'
p17
(lp18
I5
aI2
as.